; ModuleID = '22/616.c'
source_filename = "22/616.c"
target datalayout = "e-m:e-p270:32:32-p271:32:32-p272:64:64-i64:64-f80:128-n8:16:32:64-S128"
target triple = "x86_64-pc-linux-gnu"

@.str = private unnamed_addr constant [5 x i8] c"%d%c\00", align 1
@.str.1 = private unnamed_addr constant [3 x i8] c"No\00", align 1
@.str.2 = private unnamed_addr constant [3 x i8] c"%d\00", align 1

; Function Attrs: noinline nounwind uwtable
define dso_local i32 @main() #0 {
  %1 = alloca i32, align 4
  %2 = alloca [400 x i32], align 16
  %3 = alloca i32, align 4
  %4 = alloca i32, align 4
  %5 = alloca i32, align 4
  %6 = alloca i32, align 4
  %7 = alloca i32, align 4
  %8 = alloca i32, align 4
  %9 = alloca i8, align 1
  store i32 0, i32* %1, align 4
  store i32 0, i32* %3, align 4
  store i32 0, i32* %4, align 4
  store i32 0, i32* %5, align 4
  store i8 44, i8* %9, align 1
  br label %10

10:                                               ; preds = %14, %0
  %11 = load i8, i8* %9, align 1
  %12 = sext i8 %11 to i32
  %13 = icmp eq i32 %12, 44
  br i1 %13, label %14, label %21

14:                                               ; preds = %10
  %15 = load i32, i32* %3, align 4
  %16 = sext i32 %15 to i64
  %17 = getelementptr inbounds [400 x i32], [400 x i32]* %2, i64 0, i64 %16
  %18 = call i32 (i8*, ...) @__isoc99_scanf(i8* getelementptr inbounds ([5 x i8], [5 x i8]* @.str, i64 0, i64 0), i32* %17, i8* %9)
  %19 = load i32, i32* %3, align 4
  %20 = add nsw i32 %19, 1
  store i32 %20, i32* %3, align 4
  br label %10

21:                                               ; preds = %10
  %22 = load i32, i32* %3, align 4
  store i32 %22, i32* %5, align 4
  store i32 2, i32* %3, align 4
  %23 = getelementptr inbounds [400 x i32], [400 x i32]* %2, i64 0, i64 0
  %24 = load i32, i32* %23, align 16
  %25 = getelementptr inbounds [400 x i32], [400 x i32]* %2, i64 0, i64 1
  %26 = load i32, i32* %25, align 4
  %27 = icmp sgt i32 %24, %26
  br i1 %27, label %28, label %33

28:                                               ; preds = %21
  %29 = getelementptr inbounds [400 x i32], [400 x i32]* %2, i64 0, i64 0
  %30 = load i32, i32* %29, align 16
  store i32 %30, i32* %7, align 4
  %31 = getelementptr inbounds [400 x i32], [400 x i32]* %2, i64 0, i64 1
  %32 = load i32, i32* %31, align 4
  store i32 %32, i32* %8, align 4
  br label %48

33:                                               ; preds = %21
  %34 = getelementptr inbounds [400 x i32], [400 x i32]* %2, i64 0, i64 0
  %35 = load i32, i32* %34, align 16
  %36 = getelementptr inbounds [400 x i32], [400 x i32]* %2, i64 0, i64 1
  %37 = load i32, i32* %36, align 4
  %38 = icmp eq i32 %35, %37
  br i1 %38, label %39, label %42

39:                                               ; preds = %33
  %40 = getelementptr inbounds [400 x i32], [400 x i32]* %2, i64 0, i64 1
  %41 = load i32, i32* %40, align 4
  store i32 %41, i32* %7, align 4
  store i32 0, i32* %8, align 4
  br label %47

42:                                               ; preds = %33
  %43 = getelementptr inbounds [400 x i32], [400 x i32]* %2, i64 0, i64 1
  %44 = load i32, i32* %43, align 4
  store i32 %44, i32* %7, align 4
  %45 = getelementptr inbounds [400 x i32], [400 x i32]* %2, i64 0, i64 0
  %46 = load i32, i32* %45, align 16
  store i32 %46, i32* %8, align 4
  br label %47

47:                                               ; preds = %42, %39
  br label %48

48:                                               ; preds = %47, %28
  br label %49

49:                                               ; preds = %86, %48
  %50 = load i32, i32* %3, align 4
  %51 = load i32, i32* %5, align 4
  %52 = icmp slt i32 %50, %51
  br i1 %52, label %53, label %89

53:                                               ; preds = %49
  %54 = load i32, i32* %3, align 4
  %55 = sext i32 %54 to i64
  %56 = getelementptr inbounds [400 x i32], [400 x i32]* %2, i64 0, i64 %55
  %57 = load i32, i32* %56, align 4
  %58 = load i32, i32* %7, align 4
  %59 = icmp sgt i32 %57, %58
  br i1 %59, label %60, label %66

60:                                               ; preds = %53
  %61 = load i32, i32* %7, align 4
  store i32 %61, i32* %8, align 4
  %62 = load i32, i32* %3, align 4
  %63 = sext i32 %62 to i64
  %64 = getelementptr inbounds [400 x i32], [400 x i32]* %2, i64 0, i64 %63
  %65 = load i32, i32* %64, align 4
  store i32 %65, i32* %7, align 4
  br label %86

66:                                               ; preds = %53
  %67 = load i32, i32* %3, align 4
  %68 = sext i32 %67 to i64
  %69 = getelementptr inbounds [400 x i32], [400 x i32]* %2, i64 0, i64 %68
  %70 = load i32, i32* %69, align 4
  %71 = load i32, i32* %8, align 4
  %72 = icmp sgt i32 %70, %71
  br i1 %72, label %73, label %85

73:                                               ; preds = %66
  %74 = load i32, i32* %3, align 4
  %75 = sext i32 %74 to i64
  %76 = getelementptr inbounds [400 x i32], [400 x i32]* %2, i64 0, i64 %75
  %77 = load i32, i32* %76, align 4
  %78 = load i32, i32* %7, align 4
  %79 = icmp ne i32 %77, %78
  br i1 %79, label %80, label %85

80:                                               ; preds = %73
  %81 = load i32, i32* %3, align 4
  %82 = sext i32 %81 to i64
  %83 = getelementptr inbounds [400 x i32], [400 x i32]* %2, i64 0, i64 %82
  %84 = load i32, i32* %83, align 4
  store i32 %84, i32* %8, align 4
  br label %85

85:                                               ; preds = %80, %73, %66
  br label %86

86:                                               ; preds = %85, %60
  %87 = load i32, i32* %3, align 4
  %88 = add nsw i32 %87, 1
  store i32 %88, i32* %3, align 4
  br label %49

89:                                               ; preds = %49
  %90 = load i32, i32* %7, align 4
  %91 = load i32, i32* %8, align 4
  %92 = icmp eq i32 %90, %91
  br i1 %92, label %99, label %93

93:                                               ; preds = %89
  %94 = load i32, i32* %5, align 4
  %95 = icmp eq i32 %94, 1
  br i1 %95, label %99, label %96

96:                                               ; preds = %93
  %97 = load i32, i32* %8, align 4
  %98 = icmp eq i32 %97, 0
  br i1 %98, label %99, label %101

99:                                               ; preds = %96, %93, %89
  %100 = call i32 (i8*, ...) @printf(i8* getelementptr inbounds ([3 x i8], [3 x i8]* @.str.1, i64 0, i64 0))
  br label %104

101:                                              ; preds = %96
  %102 = load i32, i32* %8, align 4
  %103 = call i32 (i8*, ...) @printf(i8* getelementptr inbounds ([3 x i8], [3 x i8]* @.str.2, i64 0, i64 0), i32 %102)
  br label %104

104:                                              ; preds = %101, %99
  %105 = load i32, i32* %1, align 4
  ret i32 %105
}

declare dso_local i32 @__isoc99_scanf(i8*, ...) #1

declare dso_local i32 @printf(i8*, ...) #1


!llvm.module.flags = !{!0}
!llvm.ident = !{!1}

!0 = !{i32 1, !"wchar_size", i32 4}
!1 = !{!"clang version 10.0.0-4ubuntu1 "}
